#include <math.h>
#include <stdio.h>
#include <stdlib.h>
#include <string.h>

void main()
{
	char s[15],p='\0';
	int i,len,max;
	while(gets(s))
	{
	len=strlen(s)-4;
	for(i=0;i<len;i++)
		if(*(s+i)>p) {p=*(s+i);max=i;}
	for(i=0;i<=max;i++)
		printf("%c",*(s+i));
	for(i=len+1;i<=len+3;i++)
		printf("%c",*(s+i));
	for(i=max+1;i<len;i++)
		printf("%c",*(s+i));
	p='\0';
	printf("\n");
	}
}

